target datalayout = "e-m:e-p270:32:32-p271:32:32-p272:64:64-i64:64-i128:128-f80:128-n8:16:32:64-S128"
target triple = "x86_64-pc-linux-gnu"

%struct.Cbs_Par_t_ = type { i32, i32, i32, i32, i32, i32, i32, i32, i32, i32, i32 }
%struct.Cbs_Man_t_ = type { %struct.Cbs_Par_t_, ptr, %struct.Cbs_Que_t_, %struct.Cbs_Que_t_, %struct.Cbs_Que_t_, ptr, ptr, ptr, ptr, i32, i32, i32, i32, i32, i32, i32, i64, i64, i64, i64 }
%struct.Cbs_Que_t_ = type { i32, i32, i32, ptr }
%struct.Vec_Int_t_ = type { i32, i32, ptr }
%struct.Vec_Ptr_t_ = type { i32, i32, ptr }

; Function Attrs: inlinehint nounwind uwtable
define internal void @Vec_PtrFree(ptr noundef %0) #5 {
  %2 = alloca ptr, align 8
  store ptr %0, ptr %2, align 8, !tbaa !46
  %3 = load ptr, ptr %2, align 8, !tbaa !46
  %4 = getelementptr inbounds nuw %struct.Vec_Ptr_t_, ptr %3, i32 0, i32 2
  %5 = load ptr, ptr %4, align 8, !tbaa !50
  %6 = icmp ne ptr %5, null
  br i1 %6, label %7, label %13

7:                                                ; preds = %1
  %8 = load ptr, ptr %2, align 8, !tbaa !46
  %9 = getelementptr inbounds nuw %struct.Vec_Ptr_t_, ptr %8, i32 0, i32 2
  %10 = load ptr, ptr %9, align 8, !tbaa !50
  call void @free(ptr noundef %10) #11
  %11 = load ptr, ptr %2, align 8, !tbaa !46
  %12 = getelementptr inbounds nuw %struct.Vec_Ptr_t_, ptr %11, i32 0, i32 2
  store ptr null, ptr %12, align 8, !tbaa !50
  br label %14

13:                                               ; preds = %1
  br label %14

14:                                               ; preds = %13, %7
  %15 = load ptr, ptr %2, align 8, !tbaa !46
  %16 = icmp ne ptr %15, null
  br i1 %16, label %17, label %19

17:                                               ; preds = %14
  %18 = load ptr, ptr %2, align 8, !tbaa !46
  call void @free(ptr noundef %18) #11
  store ptr null, ptr %2, align 8, !tbaa !46
  br label %20

19:                                               ; preds = %14
  br label %20

20:                                               ; preds = %19, %17
  ret void
}

; Function Attrs: inlinehint nounwind uwtable
define internal void @Vec_IntFree(ptr noundef %0) #5 {
  %2 = alloca ptr, align 8
  store ptr %0, ptr %2, align 8, !tbaa !40
  %3 = load ptr, ptr %2, align 8, !tbaa !40
  %4 = getelementptr inbounds nuw %struct.Vec_Int_t_, ptr %3, i32 0, i32 2
  %5 = load ptr, ptr %4, align 8, !tbaa !45
  %6 = icmp ne ptr %5, null
  br i1 %6, label %7, label %13

7:                                                ; preds = %1
  %8 = load ptr, ptr %2, align 8, !tbaa !40
  %9 = getelementptr inbounds nuw %struct.Vec_Int_t_, ptr %8, i32 0, i32 2
  %10 = load ptr, ptr %9, align 8, !tbaa !45
  call void @free(ptr noundef %10) #11
  %11 = load ptr, ptr %2, align 8, !tbaa !40
  %12 = getelementptr inbounds nuw %struct.Vec_Int_t_, ptr %11, i32 0, i32 2
  store ptr null, ptr %12, align 8, !tbaa !45
  br label %14

13:                                               ; preds = %1
  br label %14

14:                                               ; preds = %13, %7
  %15 = load ptr, ptr %2, align 8, !tbaa !40
  %16 = icmp ne ptr %15, null
  br i1 %16, label %17, label %19

17:                                               ; preds = %14
  %18 = load ptr, ptr %2, align 8, !tbaa !40
  call void @free(ptr noundef %18) #11
  store ptr null, ptr %2, align 8, !tbaa !40
  br label %20

19:                                               ; preds = %14
  br label %20

20:                                               ; preds = %19, %17
  ret void
}

; Function Attrs: nounwind uwtable
define void @Cbs_ManStop(ptr noundef %0) #0 {
  %2 = alloca ptr, align 8
  store ptr %0, ptr %2, align 8, !tbaa !16
  %3 = load ptr, ptr %2, align 8, !tbaa !16
  %4 = getelementptr inbounds nuw %struct.Cbs_Man_t_, ptr %3, i32 0, i32 6
  %5 = load ptr, ptr %4, align 8, !tbaa !37
  call void @Vec_IntFree(ptr noundef %5)
  %6 = load ptr, ptr %2, align 8, !tbaa !16
  %7 = getelementptr inbounds nuw %struct.Cbs_Man_t_, ptr %6, i32 0, i32 7
  %8 = load ptr, ptr %7, align 8, !tbaa !36
  call void @Vec_IntFree(ptr noundef %8)
  %9 = load ptr, ptr %2, align 8, !tbaa !16
  %10 = getelementptr inbounds nuw %struct.Cbs_Man_t_, ptr %9, i32 0, i32 8
  %11 = load ptr, ptr %10, align 8, !tbaa !38
  call void @Vec_PtrFree(ptr noundef %11)
  %12 = load ptr, ptr %2, align 8, !tbaa !16
  %13 = getelementptr inbounds nuw %struct.Cbs_Man_t_, ptr %12, i32 0, i32 4
  %14 = getelementptr inbounds nuw %struct.Cbs_Que_t_, ptr %13, i32 0, i32 3
  %15 = load ptr, ptr %14, align 8, !tbaa !33
  %16 = icmp ne ptr %15, null
  br i1 %16, label %17, label %25

17:                                               ; preds = %1
  %18 = load ptr, ptr %2, align 8, !tbaa !16
  %19 = getelementptr inbounds nuw %struct.Cbs_Man_t_, ptr %18, i32 0, i32 4
  %20 = getelementptr inbounds nuw %struct.Cbs_Que_t_, ptr %19, i32 0, i32 3
  %21 = load ptr, ptr %20, align 8, !tbaa !33
  call void @free(ptr noundef %21) #11
  %22 = load ptr, ptr %2, align 8, !tbaa !16
  %23 = getelementptr inbounds nuw %struct.Cbs_Man_t_, ptr %22, i32 0, i32 4
  %24 = getelementptr inbounds nuw %struct.Cbs_Que_t_, ptr %23, i32 0, i32 3
  store ptr null, ptr %24, align 8, !tbaa !33
  br label %26

25:                                               ; preds = %1
  br label %26

26:                                               ; preds = %25, %17
  %27 = load ptr, ptr %2, align 8, !tbaa !16
  %28 = getelementptr inbounds nuw %struct.Cbs_Man_t_, ptr %27, i32 0, i32 2
  %29 = getelementptr inbounds nuw %struct.Cbs_Que_t_, ptr %28, i32 0, i32 3
  %30 = load ptr, ptr %29, align 8, !tbaa !31
  %31 = icmp ne ptr %30, null
  br i1 %31, label %32, label %40

32:                                               ; preds = %26
  %33 = load ptr, ptr %2, align 8, !tbaa !16
  %34 = getelementptr inbounds nuw %struct.Cbs_Man_t_, ptr %33, i32 0, i32 2
  %35 = getelementptr inbounds nuw %struct.Cbs_Que_t_, ptr %34, i32 0, i32 3
  %36 = load ptr, ptr %35, align 8, !tbaa !31
  call void @free(ptr noundef %36) #11
  %37 = load ptr, ptr %2, align 8, !tbaa !16
  %38 = getelementptr inbounds nuw %struct.Cbs_Man_t_, ptr %37, i32 0, i32 2
  %39 = getelementptr inbounds nuw %struct.Cbs_Que_t_, ptr %38, i32 0, i32 3
  store ptr null, ptr %39, align 8, !tbaa !31
  br label %41

40:                                               ; preds = %26
  br label %41

41:                                               ; preds = %40, %32
  %42 = load ptr, ptr %2, align 8, !tbaa !16
  %43 = getelementptr inbounds nuw %struct.Cbs_Man_t_, ptr %42, i32 0, i32 3
  %44 = getelementptr inbounds nuw %struct.Cbs_Que_t_, ptr %43, i32 0, i32 3
  %45 = load ptr, ptr %44, align 8, !tbaa !32
  %46 = icmp ne ptr %45, null
  br i1 %46, label %47, label %55

47:                                               ; preds = %41
  %48 = load ptr, ptr %2, align 8, !tbaa !16
  %49 = getelementptr inbounds nuw %struct.Cbs_Man_t_, ptr %48, i32 0, i32 3
  %50 = getelementptr inbounds nuw %struct.Cbs_Que_t_, ptr %49, i32 0, i32 3
  %51 = load ptr, ptr %50, align 8, !tbaa !32
  call void @free(ptr noundef %51) #11
  %52 = load ptr, ptr %2, align 8, !tbaa !16
  %53 = getelementptr inbounds nuw %struct.Cbs_Man_t_, ptr %52, i32 0, i32 3
  %54 = getelementptr inbounds nuw %struct.Cbs_Que_t_, ptr %53, i32 0, i32 3
  store ptr null, ptr %54, align 8, !tbaa !32
  br label %56

55:                                               ; preds = %41
  br label %56

56:                                               ; preds = %55, %47
  %57 = load ptr, ptr %2, align 8, !tbaa !16
  %58 = icmp ne ptr %57, null
  br i1 %58, label %59, label %61

59:                                               ; preds = %56
  %60 = load ptr, ptr %2, align 8, !tbaa !16
  call void @free(ptr noundef %60) #11
  store ptr null, ptr %2, align 8, !tbaa !16
  br label %62

61:                                               ; preds = %56
  br label %62

62:                                               ; preds = %61, %59
  ret void
}