; Function Attrs: mustprogress nounwind willreturn uwtable
define void @Cbs_ManStop(ptr noundef captures(none) %0) local_unnamed_addr #6 {
  %2 = getelementptr inbounds nuw i8, ptr %0, i64 136
  %3 = load ptr, ptr %2, align 8, !tbaa !36
  %4 = getelementptr inbounds nuw i8, ptr %3, i64 8
  %5 = load ptr, ptr %4, align 8, !tbaa !34
  %.not.i = icmp eq ptr %5, null
  br i1 %.not.i, label %Vec_IntFree.exit, label %6

6:                                                ; preds = %1
  tail call void @free(ptr noundef nonnull %5) #24
  br label %Vec_IntFree.exit

Vec_IntFree.exit:                                 ; preds = %1, %6
  tail call void @free(ptr noundef nonnull %3) #24
  %7 = getelementptr inbounds nuw i8, ptr %0, i64 144
  %8 = load ptr, ptr %7, align 8, !tbaa !35
  %9 = getelementptr inbounds nuw i8, ptr %8, i64 8
  %10 = load ptr, ptr %9, align 8, !tbaa !34
  %.not.i20 = icmp eq ptr %10, null
  br i1 %.not.i20, label %Vec_IntFree.exit21, label %11

11:                                               ; preds = %Vec_IntFree.exit
  tail call void @free(ptr noundef nonnull %10) #24
  br label %Vec_IntFree.exit21

Vec_IntFree.exit21:                               ; preds = %Vec_IntFree.exit, %11
  tail call void @free(ptr noundef nonnull %8) #24
  %12 = getelementptr inbounds nuw i8, ptr %0, i64 152
  %13 = load ptr, ptr %12, align 8, !tbaa !41
  %14 = getelementptr inbounds nuw i8, ptr %13, i64 8
  %15 = load ptr, ptr %14, align 8, !tbaa !40
  %.not.i22 = icmp eq ptr %15, null
  br i1 %.not.i22, label %Vec_PtrFree.exit, label %16

16:                                               ; preds = %Vec_IntFree.exit21
  tail call void @free(ptr noundef nonnull %15) #24
  br label %Vec_PtrFree.exit

Vec_PtrFree.exit:                                 ; preds = %Vec_IntFree.exit21, %16
  tail call void @free(ptr noundef nonnull %13) #24
  %17 = getelementptr inbounds nuw i8, ptr %0, i64 120
  %18 = load ptr, ptr %17, align 8, !tbaa !27
  %.not = icmp eq ptr %18, null
  br i1 %.not, label %20, label %19

19:                                               ; preds = %Vec_PtrFree.exit
  tail call void @free(ptr noundef nonnull %18) #24
  store ptr null, ptr %17, align 8, !tbaa !27
  br label %20

20:                                               ; preds = %Vec_PtrFree.exit, %19
  %21 = getelementptr inbounds nuw i8, ptr %0, i64 72
  %22 = load ptr, ptr %21, align 8, !tbaa !25
  %.not17 = icmp eq ptr %22, null
  br i1 %.not17, label %24, label %23

23:                                               ; preds = %20
  tail call void @free(ptr noundef nonnull %22) #24
  store ptr null, ptr %21, align 8, !tbaa !25
  br label %24

24:                                               ; preds = %20, %23
  %25 = getelementptr inbounds nuw i8, ptr %0, i64 96
  %26 = load ptr, ptr %25, align 8, !tbaa !26
  %.not18 = icmp eq ptr %26, null
  br i1 %.not18, label %28, label %27

27:                                               ; preds = %24
  tail call void @free(ptr noundef nonnull %26) #24
  br label %28

28:                                               ; preds = %24, %27
  tail call void @free(ptr noundef nonnull %0) #24
  ret void
}